; Function Attrs: nounwind uwtable
define ptr @l_Array_forIn_x27Unsafe_loop___at_Lean_Linter_UnusedVariables_unusedVariables___elambda__1___spec__22___lambda__5___boxed(ptr noundef readonly captures(none) %0) local_unnamed_addr #1 {
  %2 = load ptr, ptr %0, align 8, !tbaa !4
  %3 = getelementptr inbounds nuw i8, ptr %0, i64 8
  %4 = load ptr, ptr %3, align 8, !tbaa !4
  %5 = getelementptr inbounds nuw i8, ptr %0, i64 16
  %6 = load ptr, ptr %5, align 8, !tbaa !4
  %7 = getelementptr inbounds nuw i8, ptr %0, i64 24
  %8 = load ptr, ptr %7, align 8, !tbaa !4
  %9 = getelementptr inbounds nuw i8, ptr %0, i64 32
  %10 = load ptr, ptr %9, align 8, !tbaa !4
  %11 = getelementptr inbounds nuw i8, ptr %0, i64 40
  %12 = load ptr, ptr %11, align 8, !tbaa !4
  %13 = getelementptr inbounds nuw i8, ptr %0, i64 48
  %14 = load ptr, ptr %13, align 8, !tbaa !4
  %15 = getelementptr inbounds nuw i8, ptr %0, i64 56
  %16 = load ptr, ptr %15, align 8, !tbaa !4
  %17 = getelementptr inbounds nuw i8, ptr %0, i64 64
  %18 = load ptr, ptr %17, align 8, !tbaa !4
  %19 = getelementptr inbounds nuw i8, ptr %0, i64 72
  %20 = load ptr, ptr %19, align 8, !tbaa !4
  %21 = getelementptr inbounds nuw i8, ptr %0, i64 80
  %22 = load ptr, ptr %21, align 8, !tbaa !4
  %23 = getelementptr inbounds nuw i8, ptr %0, i64 88
  %24 = load ptr, ptr %23, align 8, !tbaa !4
  %25 = getelementptr inbounds nuw i8, ptr %0, i64 96
  %26 = load ptr, ptr %25, align 8, !tbaa !4
  %27 = getelementptr inbounds nuw i8, ptr %0, i64 104
  %28 = load ptr, ptr %27, align 8, !tbaa !4
  %29 = getelementptr inbounds nuw i8, ptr %0, i64 112
  %30 = load ptr, ptr %29, align 8, !tbaa !4
  %31 = getelementptr inbounds nuw i8, ptr %0, i64 120
  %32 = load ptr, ptr %31, align 8, !tbaa !4
  %33 = getelementptr inbounds nuw i8, ptr %0, i64 128
  %34 = load ptr, ptr %33, align 8, !tbaa !4
  %35 = getelementptr inbounds nuw i8, ptr %0, i64 136
  %36 = load ptr, ptr %35, align 8, !tbaa !4
  %37 = getelementptr inbounds nuw i8, ptr %0, i64 144
  %38 = load ptr, ptr %37, align 8, !tbaa !4
  %39 = getelementptr inbounds nuw i8, ptr %0, i64 152
  %40 = load ptr, ptr %39, align 8, !tbaa !4
  %41 = getelementptr inbounds nuw i8, ptr %0, i64 160
  %42 = load ptr, ptr %41, align 8, !tbaa !4
  %43 = getelementptr inbounds nuw i8, ptr %0, i64 168
  %44 = load ptr, ptr %43, align 8, !tbaa !4
  %45 = getelementptr i8, ptr %22, i64 8
  %.val = load i64, ptr %45, align 8, !tbaa !12
  %46 = ptrtoint ptr %22 to i64
  %47 = and i64 %46, 1
  %.not = icmp eq i64 %47, 0
  br i1 %.not, label %48, label %lean_dec.exit62

48:                                               ; preds = %1
  %49 = load i32, ptr %22, align 4, !tbaa !8
  %50 = icmp sgt i32 %49, 1
  br i1 %50, label %51, label %53, !prof !11

51:                                               ; preds = %48
  %52 = add nsw i32 %49, -1
  store i32 %52, ptr %22, align 4, !tbaa !8
  br label %lean_dec.exit62

53:                                               ; preds = %48
  %.not.i = icmp eq i32 %49, 0
  br i1 %.not.i, label %lean_dec.exit62, label %54

54:                                               ; preds = %53
  tail call void @lean_dec_ref_cold(ptr noundef nonnull %22) #7
  br label %lean_dec.exit62

lean_dec.exit62:                                  ; preds = %54, %53, %51, %1
  %55 = ptrtoint ptr %34 to i64
  %56 = lshr i64 %55, 1
  %57 = trunc i64 %56 to i8
  %58 = and i64 %55, 1
  %.not79 = icmp eq i64 %58, 0
  br i1 %.not79, label %59, label %lean_dec.exit61

59:                                               ; preds = %lean_dec.exit62
  %60 = load i32, ptr %34, align 4, !tbaa !8
  %61 = icmp sgt i32 %60, 1
  br i1 %61, label %62, label %64, !prof !11

62:                                               ; preds = %59
  %63 = add nsw i32 %60, -1
  store i32 %63, ptr %34, align 4, !tbaa !8
  br label %lean_dec.exit61

64:                                               ; preds = %59
  %.not.i63 = icmp eq i32 %60, 0
  br i1 %.not.i63, label %lean_dec.exit61, label %65

65:                                               ; preds = %64
  tail call void @lean_dec_ref_cold(ptr noundef nonnull %34) #7
  br label %lean_dec.exit61

lean_dec.exit61:                                  ; preds = %65, %64, %62, %lean_dec.exit62
  %66 = tail call ptr @l_Array_forIn_x27Unsafe_loop___at_Lean_Linter_UnusedVariables_unusedVariables___elambda__1___spec__22___lambda__5(ptr noundef %2, ptr noundef %4, ptr noundef %6, ptr noundef %8, ptr noundef %10, ptr noundef %12, ptr noundef %14, ptr noundef %16, ptr noundef %18, ptr noundef %20, i64 noundef %.val, ptr noundef %24, ptr noundef %26, ptr poison, ptr noundef %30, ptr noundef %32, i8 noundef zeroext %57, ptr noundef %36, ptr poison, ptr noundef %40, ptr noundef %42, ptr noundef %44)
  %67 = ptrtoint ptr %38 to i64
  %68 = and i64 %67, 1
  %.not80 = icmp eq i64 %68, 0
  br i1 %.not80, label %69, label %lean_dec.exit60

69:                                               ; preds = %lean_dec.exit61
  %70 = load i32, ptr %38, align 4, !tbaa !8
  %71 = icmp sgt i32 %70, 1
  br i1 %71, label %72, label %74, !prof !11

72:                                               ; preds = %69
  %73 = add nsw i32 %70, -1
  store i32 %73, ptr %38, align 4, !tbaa !8
  br label %lean_dec.exit60

74:                                               ; preds = %69
  %.not.i65 = icmp eq i32 %70, 0
  br i1 %.not.i65, label %lean_dec.exit60, label %75

75:                                               ; preds = %74
  tail call void @lean_dec_ref_cold(ptr noundef nonnull %38) #7
  br label %lean_dec.exit60

lean_dec.exit60:                                  ; preds = %75, %74, %72, %lean_dec.exit61
  %76 = ptrtoint ptr %30 to i64
  %77 = and i64 %76, 1
  %.not81 = icmp eq i64 %77, 0
  br i1 %.not81, label %78, label %lean_dec.exit59

78:                                               ; preds = %lean_dec.exit60
  %79 = load i32, ptr %30, align 4, !tbaa !8
  %80 = icmp sgt i32 %79, 1
  br i1 %80, label %81, label %83, !prof !11

81:                                               ; preds = %78
  %82 = add nsw i32 %79, -1
  store i32 %82, ptr %30, align 4, !tbaa !8
  br label %lean_dec.exit59

83:                                               ; preds = %78
  %.not.i67 = icmp eq i32 %79, 0
  br i1 %.not.i67, label %lean_dec.exit59, label %84

84:                                               ; preds = %83
  tail call void @lean_dec_ref_cold(ptr noundef nonnull %30) #7
  br label %lean_dec.exit59

lean_dec.exit59:                                  ; preds = %84, %83, %81, %lean_dec.exit60
  %85 = ptrtoint ptr %28 to i64
  %86 = and i64 %85, 1
  %.not82 = icmp eq i64 %86, 0
  br i1 %.not82, label %87, label %lean_dec.exit58

87:                                               ; preds = %lean_dec.exit59
  %88 = load i32, ptr %28, align 4, !tbaa !8
  %89 = icmp sgt i32 %88, 1
  br i1 %89, label %90, label %92, !prof !11

90:                                               ; preds = %87
  %91 = add nsw i32 %88, -1
  store i32 %91, ptr %28, align 4, !tbaa !8
  br label %lean_dec.exit58

92:                                               ; preds = %87
  %.not.i69 = icmp eq i32 %88, 0
  br i1 %.not.i69, label %lean_dec.exit58, label %93

93:                                               ; preds = %92
  tail call void @lean_dec_ref_cold(ptr noundef nonnull %28) #7
  br label %lean_dec.exit58

lean_dec.exit58:                                  ; preds = %93, %92, %90, %lean_dec.exit59
  %94 = ptrtoint ptr %26 to i64
  %95 = and i64 %94, 1
  %.not83 = icmp eq i64 %95, 0
  br i1 %.not83, label %96, label %lean_dec.exit57

96:                                               ; preds = %lean_dec.exit58
  %97 = load i32, ptr %26, align 4, !tbaa !8
  %98 = icmp sgt i32 %97, 1
  br i1 %98, label %99, label %101, !prof !11

99:                                               ; preds = %96
  %100 = add nsw i32 %97, -1
  store i32 %100, ptr %26, align 4, !tbaa !8
  br label %lean_dec.exit57

101:                                              ; preds = %96
  %.not.i71 = icmp eq i32 %97, 0
  br i1 %.not.i71, label %lean_dec.exit57, label %102

102:                                              ; preds = %101
  tail call void @lean_dec_ref_cold(ptr noundef nonnull %26) #7
  br label %lean_dec.exit57

lean_dec.exit57:                                  ; preds = %102, %101, %99, %lean_dec.exit58
  %103 = ptrtoint ptr %20 to i64
  %104 = and i64 %103, 1
  %.not84 = icmp eq i64 %104, 0
  br i1 %.not84, label %105, label %lean_dec.exit56

105:                                              ; preds = %lean_dec.exit57
  %106 = load i32, ptr %20, align 4, !tbaa !8
  %107 = icmp sgt i32 %106, 1
  br i1 %107, label %108, label %110, !prof !11

108:                                              ; preds = %105
  %109 = add nsw i32 %106, -1
  store i32 %109, ptr %20, align 4, !tbaa !8
  br label %lean_dec.exit56

110:                                              ; preds = %105
  %.not.i73 = icmp eq i32 %106, 0
  br i1 %.not.i73, label %lean_dec.exit56, label %111

111:                                              ; preds = %110
  tail call void @lean_dec_ref_cold(ptr noundef nonnull %20) #7
  br label %lean_dec.exit56

lean_dec.exit56:                                  ; preds = %111, %110, %108, %lean_dec.exit57
  %112 = ptrtoint ptr %16 to i64
  %113 = and i64 %112, 1
  %.not85 = icmp eq i64 %113, 0
  br i1 %.not85, label %114, label %lean_dec.exit55

114:                                              ; preds = %lean_dec.exit56
  %115 = load i32, ptr %16, align 4, !tbaa !8
  %116 = icmp sgt i32 %115, 1
  br i1 %116, label %117, label %119, !prof !11

117:                                              ; preds = %114
  %118 = add nsw i32 %115, -1
  store i32 %118, ptr %16, align 4, !tbaa !8
  br label %lean_dec.exit55

119:                                              ; preds = %114
  %.not.i75 = icmp eq i32 %115, 0
  br i1 %.not.i75, label %lean_dec.exit55, label %120

120:                                              ; preds = %119
  tail call void @lean_dec_ref_cold(ptr noundef nonnull %16) #7
  br label %lean_dec.exit55

lean_dec.exit55:                                  ; preds = %120, %119, %117, %lean_dec.exit56
  %121 = ptrtoint ptr %8 to i64
  %122 = and i64 %121, 1
  %.not86 = icmp eq i64 %122, 0
  br i1 %.not86, label %123, label %lean_dec.exit

123:                                              ; preds = %lean_dec.exit55
  %124 = load i32, ptr %8, align 4, !tbaa !8
  %125 = icmp sgt i32 %124, 1
  br i1 %125, label %126, label %128, !prof !11

126:                                              ; preds = %123
  %127 = add nsw i32 %124, -1
  store i32 %127, ptr %8, align 4, !tbaa !8
  br label %lean_dec.exit

128:                                              ; preds = %123
  %.not.i77 = icmp eq i32 %124, 0
  br i1 %.not.i77, label %lean_dec.exit, label %129

129:                                              ; preds = %128
  tail call void @lean_dec_ref_cold(ptr noundef nonnull %8) #7
  br label %lean_dec.exit

lean_dec.exit:                                    ; preds = %129, %128, %126, %lean_dec.exit55
  ret ptr %66
}